Certificate:
    Data:
        Version: 3 (0x2)
        Serial Number: 4096 (0x1000)
        Signature Algorithm: sha256WithRSAEncryption
        Issuer: C=BA, ST=dhaka, L=dhaka, O=dhaka, OU=dhaka, CN=dhaka/emailAddress=dhaka@gmail.com
        Validity
            Not Before: Jul  8 14:26:33 2024 GMT
            Not After : Jul  8 14:26:33 2025 GMT
        Subject: C=BA, ST=dhaka, O=dhaka, OU=dhaka, CN=example.com/emailAddress=dhaka@gmail.com
        Subject Public Key Info:
            Public Key Algorithm: rsaEncryption
                Public-Key: (2048 bit)
                Modulus:
                    00:b4:05:d8:0e:c5:85:17:b3:41:37:ce:ad:68:d0:
                    32:0d:82:c9:23:19:a7:e9:9f:29:a9:41:b3:e9:ce:
                    ce:24:b1:ab:18:d7:31:eb:bf:db:77:c5:82:77:74:
                    25:4c:bb:18:2e:a5:52:e0:4c:95:87:1b:16:cc:a9:
                    10:d0:2a:ab:e7:b9:c4:0a:8c:8f:b2:02:ee:0f:2e:
                    6c:cf:f9:68:80:45:c1:df:14:54:a8:eb:d7:98:7f:
                    b6:9f:92:81:54:09:aa:ce:48:72:82:c2:67:96:d6:
                    6d:ad:0d:6f:c6:56:33:db:f7:90:02:78:5b:14:90:
                    ec:d4:c6:53:f4:36:5b:b8:c4:fb:53:94:8a:f9:75:
                    df:ad:f5:5a:3d:c7:47:9e:49:89:f9:f4:b8:0a:66:
                    58:1c:14:4c:aa:0b:14:e5:4a:61:99:8e:24:83:f8:
                    36:ce:f8:28:c3:aa:77:08:45:01:18:c5:2a:af:1f:
                    a1:08:fc:67:12:74:d4:2a:0d:5c:37:69:85:5f:83:
                    48:91:37:03:73:ef:9b:ab:46:14:12:f8:41:b2:61:
                    2b:a6:a5:02:1a:ac:9a:77:61:58:ad:39:73:36:1b:
                    0b:95:01:05:5b:b1:35:3e:6a:47:99:9b:25:60:cd:
                    95:f7:5c:d4:32:5f:e6:a7:ed:bb:8c:65:2a:37:0a:
                    5d:83
                Exponent: 65537 (0x10001)
        X509v3 extensions:
            X509v3 Basic Constraints: 
                CA:FALSE
            X509v3 Subject Key Identifier: 
                5A:02:D3:07:07:A0:C2:11:CF:F8:4E:E8:26:47:5B:29:8F:63:FE:5D
            X509v3 Authority Key Identifier: 
                8A:69:19:A2:EB:C8:38:15:71:0D:C7:E9:F2:B3:06:94:86:89:82:A4
    Signature Algorithm: sha256WithRSAEncryption
    Signature Value:
        8e:af:af:bc:61:7f:d1:95:6f:53:63:ac:11:ef:fa:7b:a5:4d:
        1e:81:3a:27:2a:3d:5a:0c:fb:b8:07:b5:44:56:c8:53:55:a4:
        ec:13:fa:38:eb:f1:3f:49:90:5c:d0:e0:8f:5b:8e:4c:cb:0d:
        e2:f3:75:5b:3c:86:9e:ac:5d:15:d9:84:f5:69:93:a9:ea:70:
        8e:46:50:76:66:bf:c0:83:59:0f:1c:18:86:90:93:bf:88:4f:
        d1:3a:4a:fd:85:97:9d:f0:7f:18:5b:6f:80:f8:04:ee:bd:9b:
        c1:b8:0d:c3:a9:4b:be:b2:95:9e:2b:89:7f:2e:35:fc:0d:88:
        6c:e7:bb:d0:29:90:8e:ce:ec:98:d4:ad:02:25:1e:a5:64:11:
        69:a7:4d:63:4e:cc:b1:36:7c:df:78:c3:fb:56:b6:ae:27:21:
        a0:36:f4:5e:42:a1:bf:5d:65:b9:10:1b:ec:29:dd:35:63:05:
        0e:7d:b5:11:b3:47:d2:56:60:45:06:b7:a9:7e:f7:ce:3b:49:
        49:ca:4b:0c:24:d9:37:85:f1:25:bd:dd:57:c4:a6:4a:84:46:
        83:2c:ef:c7:48:fa:c0:f5:72:b5:3e:f0:a6:fc:2a:b2:05:06:
        11:fe:88:23:1e:03:90:05:b3:85:57:08:6d:1e:be:12:08:f6:
        13:27:05:e9
-----BEGIN CERTIFICATE-----
MIIDuTCCAqGgAwIBAgICEAAwDQYJKoZIhvcNAQELBQAwfTELMAkGA1UEBhMCQkEx
DjAMBgNVBAgMBWRoYWthMQ4wDAYDVQQHDAVkaGFrYTEOMAwGA1UECgwFZGhha2Ex
DjAMBgNVBAsMBWRoYWthMQ4wDAYDVQQDDAVkaGFrYTEeMBwGCSqGSIb3DQEJARYP
ZGhha2FAZ21haWwuY29tMB4XDTI0MDcwODE0MjYzM1oXDTI1MDcwODE0MjYzM1ow
czELMAkGA1UEBhMCQkExDjAMBgNVBAgMBWRoYWthMQ4wDAYDVQQKDAVkaGFrYTEO
MAwGA1UECwwFZGhha2ExFDASBgNVBAMMC2V4YW1wbGUuY29tMR4wHAYJKoZIhvcN
AQkBFg9kaGFrYUBnbWFpbC5jb20wggEiMA0GCSqGSIb3DQEBAQUAA4IBDwAwggEK
AoIBAQC0BdgOxYUXs0E3zq1o0DINgskjGafpnympQbPpzs4ksasY1zHrv9t3xYJ3
dCVMuxgupVLgTJWHGxbMqRDQKqvnucQKjI+yAu4PLmzP+WiARcHfFFSo69eYf7af
koFUCarOSHKCwmeW1m2tDW/GVjPb95ACeFsUkOzUxlP0Nlu4xPtTlIr5dd+t9Vo9
x0eeSYn59LgKZlgcFEyqCxTlSmGZjiSD+DbO+CjDqncIRQEYxSqvH6EI/GcSdNQq
DVw3aYVfg0iRNwNz75urRhQS+EGyYSumpQIarJp3YVitOXM2GwuVAQVbsTU+akeZ
myVgzZX3XNQyX+an7buMZSo3Cl2DAgMBAAGjTTBLMAkGA1UdEwQCMAAwHQYDVR0O
BBYEFFoC0wcHoMIRz/hO6CZHWymPY/5dMB8GA1UdIwQYMBaAFIppGaLryDgVcQ3H
6fKzBpSGiYKkMA0GCSqGSIb3DQEBCwUAA4IBAQCOr6+8YX/RlW9TY6wR7/p7pU0e
gTonKj1aDPu4B7VEVshTVaTsE/o46/E/SZBc0OCPW45Myw3i83VbPIaerF0V2YT1
aZOp6nCORlB2Zr/Ag1kPHBiGkJO/iE/ROkr9hZed8H8YW2+A+ATuvZvBuA3DqUu+
spWeK4l/LjX8DYhs57vQKZCOzuyY1K0CJR6lZBFpp01jTsyxNnzfeMP7VrauJyGg
NvReQqG/XWW5EBvsKd01YwUOfbURs0fSVmBFBrepfvfOO0lJyksMJNk3hfElvd1X
xKZKhEaDLO/HSPrA9XK1PvCm/CqyBQYR/ogjHgOQBbOFVwhtHr4SCPYTJwXp
-----END CERTIFICATE-----
